#include <math.h>
#include <stdio.h>
#include <stdlib.h>
#include <string.h>


int main()
{

    //??????
    int days[12] = {31, 28, 31, 30, 31, 30, 31, 31, 30, 31, 30, 31};
    
    //startDay?1?1??????
    //xMonthThirteenth????13??????????
    //whatDay????13??????
    int startDay, xMonthThirteenth = 13;
    int whatDay, i;

    scanf("%d", &startDay);
    xMonthThirteenth += (startDay - 1); 
    for(i = 0; i < 12; i ++)
    {
        whatDay = xMonthThirteenth % 7;
        if(whatDay == 5)
            printf("%d\n", i + 1);
        xMonthThirteenth += days[i];
    }

	return 0;
}
